target datalayout = "e-m:e-p270:32:32-p271:32:32-p272:64:64-i64:64-i128:128-f80:128-n8:16:32:64-S128"
target triple = "x86_64-pc-linux-gnu"

%struct.UCMapping = type { i32, %union.anon, i8, i8, i8, i8 }
%union.anon = type { i32 }

@stderr = external global ptr, align 8
@.str.22 = private unnamed_addr constant [28 x i8] c"incomplete charmap section\0A\00", align 1
@.str.23 = private unnamed_addr constant [12 x i8] c"END CHARMAP\00", align 1

; Function Attrs: mustprogress uwtable
define signext i8 @ucm_addMappingFromLine(ptr noundef %0, ptr noundef %1, i8 noundef signext %2, ptr noundef %3) #0 {
  %5 = alloca i8, align 1
  %6 = alloca ptr, align 8
  %7 = alloca ptr, align 8
  %8 = alloca i8, align 1
  %9 = alloca ptr, align 8
  %10 = alloca %struct.UCMapping, align 4
  %11 = alloca [19 x i32], align 16
  %12 = alloca [31 x i8], align 16
  %13 = alloca ptr, align 8
  %14 = alloca i32, align 4
  store ptr %0, ptr %6, align 8, !tbaa !64
  store ptr %1, ptr %7, align 8, !tbaa !24
  store i8 %2, ptr %8, align 1, !tbaa !22
  store ptr %3, ptr %9, align 8, !tbaa !50
  call void @llvm.lifetime.start.p0(i64 12, ptr %10) #12
  call void @llvm.memset.p0.i64(ptr align 4 %10, i8 0, i64 12, i1 false)
  call void @llvm.lifetime.start.p0(i64 76, ptr %11) #12
  call void @llvm.lifetime.start.p0(i64 31, ptr %12) #12
  call void @llvm.lifetime.start.p0(i64 8, ptr %13) #12
  %15 = load ptr, ptr %7, align 8, !tbaa !24
  %16 = getelementptr inbounds i8, ptr %15, i64 0
  %17 = load i8, ptr %16, align 1, !tbaa !22
  %18 = sext i8 %17 to i32
  %19 = icmp eq i32 %18, 35
  br i1 %19, label %36, label %20

20:                                               ; preds = %4
  %21 = load ptr, ptr %7, align 8, !tbaa !24
  %22 = call ptr @u_skipWhitespace(ptr noundef %21)
  store ptr %22, ptr %13, align 8, !tbaa !24
  %23 = load i8, ptr %22, align 1, !tbaa !22
  %24 = sext i8 %23 to i32
  %25 = icmp eq i32 %24, 0
  br i1 %25, label %36, label %26

26:                                               ; preds = %20
  %27 = load ptr, ptr %13, align 8, !tbaa !24
  %28 = load i8, ptr %27, align 1, !tbaa !22
  %29 = sext i8 %28 to i32
  %30 = icmp eq i32 %29, 10
  br i1 %30, label %36, label %31

31:                                               ; preds = %26
  %32 = load ptr, ptr %13, align 8, !tbaa !24
  %33 = load i8, ptr %32, align 1, !tbaa !22
  %34 = sext i8 %33 to i32
  %35 = icmp eq i32 %34, 13
  br i1 %35, label %36, label %37

36:                                               ; preds = %31, %26, %20, %4
  store i8 1, ptr %5, align 1
  store i32 1, ptr %14, align 4
  br label %54

37:                                               ; preds = %31
  %38 = getelementptr inbounds [19 x i32], ptr %11, i64 0, i64 0
  %39 = getelementptr inbounds [31 x i8], ptr %12, i64 0, i64 0
  %40 = load ptr, ptr %7, align 8, !tbaa !24
  %41 = call signext i8 @ucm_parseMappingLine(ptr noundef %10, ptr noundef %38, ptr noundef %39, ptr noundef %40)
  %42 = icmp ne i8 %41, 0
  br i1 %42, label %43, label %51

43:                                               ; preds = %37
  %44 = load ptr, ptr %6, align 8, !tbaa !64
  %45 = load i8, ptr %8, align 1, !tbaa !22
  %46 = load ptr, ptr %9, align 8, !tbaa !50
  %47 = getelementptr inbounds [19 x i32], ptr %11, i64 0, i64 0
  %48 = getelementptr inbounds [31 x i8], ptr %12, i64 0, i64 0
  %49 = call signext i8 @ucm_addMappingAuto(ptr noundef %44, i8 noundef signext %45, ptr noundef %46, ptr noundef %10, ptr noundef %47, ptr noundef %48)
  %50 = icmp ne i8 %49, 0
  br label %51

51:                                               ; preds = %43, %37
  %52 = phi i1 [ false, %37 ], [ %50, %43 ]
  %53 = zext i1 %52 to i8
  store i8 %53, ptr %5, align 1
  store i32 1, ptr %14, align 4
  br label %54

54:                                               ; preds = %51, %36
  call void @llvm.lifetime.end.p0(i64 8, ptr %13) #12
  call void @llvm.lifetime.end.p0(i64 31, ptr %12) #12
  call void @llvm.lifetime.end.p0(i64 76, ptr %11) #12
  call void @llvm.lifetime.end.p0(i64 12, ptr %10) #12
  %55 = load i8, ptr %5, align 1
  ret i8 %55
}

; Function Attrs: inlinehint mustprogress nounwind uwtable
define internal noundef signext i8 @_ZL9U_FAILURE10UErrorCode(i32 noundef %0) #6 {
  %2 = alloca i32, align 4
  store i32 %0, ptr %2, align 4, !tbaa !36
  %3 = load i32, ptr %2, align 4, !tbaa !36
  %4 = icmp sgt i32 %3, 0
  %5 = zext i1 %4 to i8
  ret i8 %5
}

; Function Attrs: mustprogress uwtable
define void @ucm_readTable(ptr noundef %0, ptr noundef %1, i8 noundef signext %2, ptr noundef %3, ptr noundef %4) #0 {
  %6 = alloca ptr, align 8
  %7 = alloca ptr, align 8
  %8 = alloca i8, align 1
  %9 = alloca ptr, align 8
  %10 = alloca ptr, align 8
  %11 = alloca [500 x i8], align 16
  %12 = alloca ptr, align 8
  %13 = alloca i8, align 1
  %14 = alloca i32, align 4
  store ptr %0, ptr %6, align 8, !tbaa !64
  store ptr %1, ptr %7, align 8, !tbaa !81
  store i8 %2, ptr %8, align 1, !tbaa !22
  store ptr %3, ptr %9, align 8, !tbaa !50
  store ptr %4, ptr %10, align 8, !tbaa !40
  call void @llvm.lifetime.start.p0(i64 500, ptr %11) #12
  call void @llvm.lifetime.start.p0(i64 8, ptr %12) #12
  call void @llvm.lifetime.start.p0(i64 1, ptr %13) #12
  %15 = load ptr, ptr %10, align 8, !tbaa !40
  %16 = load i32, ptr %15, align 4, !tbaa !36
  %17 = call noundef signext i8 @_ZL9U_FAILURE10UErrorCode(i32 noundef %16)
  %18 = icmp ne i8 %17, 0
  br i1 %18, label %19, label %20

19:                                               ; preds = %5
  store i32 1, ptr %14, align 4
  br label %89

20:                                               ; preds = %5
  store i8 1, ptr %13, align 1, !tbaa !22
  br label %21

21:                                               ; preds = %72, %66, %20
  %22 = load ptr, ptr %7, align 8, !tbaa !81
  %23 = getelementptr inbounds [500 x i8], ptr %11, i64 0, i64 0
  %24 = call ptr @T_FileStream_readLine(ptr noundef %22, ptr noundef %23, i32 noundef 500)
  %25 = icmp ne ptr %24, null
  br i1 %25, label %29, label %26

26:                                               ; preds = %21
  %27 = load ptr, ptr @stderr, align 8, !tbaa !10
  %28 = call i32 (ptr, ptr, ...) @fprintf(ptr noundef %27, ptr noundef @.str.22) #12
  store i8 0, ptr %13, align 1, !tbaa !22
  br label %83

29:                                               ; preds = %21
  %30 = getelementptr inbounds [500 x i8], ptr %11, i64 0, i64 0
  %31 = call noundef ptr @strchr(ptr noundef %30, i32 noundef 0) #16
  store ptr %31, ptr %12, align 8, !tbaa !24
  br label %32

32:                                               ; preds = %52, %29
  %33 = getelementptr inbounds [500 x i8], ptr %11, i64 0, i64 0
  %34 = load ptr, ptr %12, align 8, !tbaa !24
  %35 = icmp ult ptr %33, %34
  br i1 %35, label %36, label %50

36:                                               ; preds = %32
  %37 = load ptr, ptr %12, align 8, !tbaa !24
  %38 = getelementptr inbounds i8, ptr %37, i64 -1
  %39 = load i8, ptr %38, align 1, !tbaa !22
  %40 = sext i8 %39 to i32
  %41 = icmp eq i32 %40, 13
  br i1 %41, label %48, label %42

42:                                               ; preds = %36
  %43 = load ptr, ptr %12, align 8, !tbaa !24
  %44 = getelementptr inbounds i8, ptr %43, i64 -1
  %45 = load i8, ptr %44, align 1, !tbaa !22
  %46 = sext i8 %45 to i32
  %47 = icmp eq i32 %46, 10
  br label %48

48:                                               ; preds = %42, %36
  %49 = phi i1 [ true, %36 ], [ %47, %42 ]
  br label %50

50:                                               ; preds = %48, %32
  %51 = phi i1 [ false, %32 ], [ %49, %48 ]
  br i1 %51, label %52, label %55

52:                                               ; preds = %50
  %53 = load ptr, ptr %12, align 8, !tbaa !24
  %54 = getelementptr inbounds i8, ptr %53, i32 -1
  store ptr %54, ptr %12, align 8, !tbaa !24
  br label %32, !llvm.loop !83

55:                                               ; preds = %50
  %56 = load ptr, ptr %12, align 8, !tbaa !24
  store i8 0, ptr %56, align 1, !tbaa !22
  %57 = getelementptr inbounds [500 x i8], ptr %11, i64 0, i64 0
  %58 = load i8, ptr %57, align 16, !tbaa !22
  %59 = sext i8 %58 to i32
  %60 = icmp eq i32 %59, 0
  br i1 %60, label %66, label %61

61:                                               ; preds = %55
  %62 = getelementptr inbounds [500 x i8], ptr %11, i64 0, i64 0
  %63 = load i8, ptr %62, align 16, !tbaa !22
  %64 = sext i8 %63 to i32
  %65 = icmp eq i32 %64, 35
  br i1 %65, label %66, label %67

66:                                               ; preds = %61, %55
  br label %21, !llvm.loop !84

67:                                               ; preds = %61
  %68 = getelementptr inbounds [500 x i8], ptr %11, i64 0, i64 0
  %69 = call i32 @strcmp(ptr noundef %68, ptr noundef @.str.23) #16
  %70 = icmp eq i32 0, %69
  br i1 %70, label %71, label %72

71:                                               ; preds = %67
  br label %83

72:                                               ; preds = %67
  %73 = load ptr, ptr %6, align 8, !tbaa !64
  %74 = getelementptr inbounds [500 x i8], ptr %11, i64 0, i64 0
  %75 = load i8, ptr %8, align 1, !tbaa !22
  %76 = load ptr, ptr %9, align 8, !tbaa !50
  %77 = call signext i8 @ucm_addMappingFromLine(ptr noundef %73, ptr noundef %74, i8 noundef signext %75, ptr noundef %76)
  %78 = sext i8 %77 to i32
  %79 = load i8, ptr %13, align 1, !tbaa !22
  %80 = sext i8 %79 to i32
  %81 = and i32 %80, %78
  %82 = trunc i32 %81 to i8
  store i8 %82, ptr %13, align 1, !tbaa !22
  br label %21, !llvm.loop !84

83:                                               ; preds = %71, %26
  %84 = load i8, ptr %13, align 1, !tbaa !22
  %85 = icmp ne i8 %84, 0
  br i1 %85, label %88, label %86

86:                                               ; preds = %83
  %87 = load ptr, ptr %10, align 8, !tbaa !40
  store i32 13, ptr %87, align 4, !tbaa !36
  br label %88

88:                                               ; preds = %86, %83
  store i32 0, ptr %14, align 4
  br label %89

89:                                               ; preds = %88, %19
  call void @llvm.lifetime.end.p0(i64 1, ptr %13) #12
  call void @llvm.lifetime.end.p0(i64 8, ptr %12) #12
  call void @llvm.lifetime.end.p0(i64 500, ptr %11) #12
  %90 = load i32, ptr %14, align 4
  switch i32 %90, label %92 [
    i32 0, label %91
    i32 1, label %91
  ]

91:                                               ; preds = %89, %89
  ret void

92:                                               ; preds = %89
  unreachable
}