; Function Attrs: mustprogress uwtable
define void @ucm_readTable(ptr noundef readonly captures(none) %0, ptr noundef %1, i8 noundef signext %2, ptr noundef %3, ptr noundef captures(none) %4) local_unnamed_addr #2 {
  %6 = alloca %struct.UCMapping, align 4
  %7 = alloca [19 x i32], align 16
  %8 = alloca [31 x i8], align 16
  %9 = alloca [500 x i8], align 16
  call void @llvm.lifetime.start.p0(i64 500, ptr nonnull %9) #16
  %10 = load i32, ptr %4, align 4, !tbaa !29
  %11 = icmp slt i32 %10, 1
  br i1 %11, label %.preheader, label %37

.preheader:                                       ; preds = %5
  %12 = call ptr @T_FileStream_readLine(ptr noundef %1, ptr noundef nonnull %9, i32 noundef 500)
  %.not192729 = icmp eq ptr %12, null
  br i1 %.not192729, label %.thread, label %.lr.ph28

.lr.ph28:                                         ; preds = %.preheader, %ucm_addMappingFromLine.exit
  %.0.ph30 = phi i8 [ %33, %ucm_addMappingFromLine.exit ], [ 1, %.preheader ]
  br label %15

.thread:                                          ; preds = %ucm_addMappingFromLine.exit, %.backedge, %.preheader
  %13 = load ptr, ptr @stderr, align 8, !tbaa !32
  %14 = call i64 @fwrite(ptr nonnull @.str.22, i64 27, i64 1, ptr %13) #18
  br label %36

15:                                               ; preds = %.lr.ph28, %.backedge
  %strlen = call i64 @strlen(ptr noundef nonnull dereferenceable(1) %9)
  %strchr = getelementptr inbounds i8, ptr %9, i64 %strlen
  %16 = icmp sgt i64 %strlen, 0
  br i1 %16, label %.lr.ph, label %.critedge

.lr.ph:                                           ; preds = %15, %.critedge2
  %.01724 = phi ptr [ %17, %.critedge2 ], [ %strchr, %15 ]
  %17 = getelementptr inbounds i8, ptr %.01724, i64 -1
  %18 = load i8, ptr %17, align 1, !tbaa !17
  switch i8 %18, label %.critedge [
    i8 13, label %.critedge2
    i8 10, label %.critedge2
  ]

.critedge2:                                       ; preds = %.lr.ph, %.lr.ph
  %19 = icmp ult ptr %9, %17
  br i1 %19, label %.lr.ph, label %.critedge, !llvm.loop !72

.critedge:                                        ; preds = %.critedge2, %.lr.ph, %15
  %.017.lcssa = phi ptr [ %strchr, %15 ], [ %.01724, %.lr.ph ], [ %17, %.critedge2 ]
  store i8 0, ptr %.017.lcssa, align 1, !tbaa !17
  %20 = load i8, ptr %9, align 16, !tbaa !17
  switch i8 %20, label %22 [
    i8 35, label %.backedge
    i8 0, label %.backedge
  ]

.backedge:                                        ; preds = %.critedge, %.critedge
  %21 = call ptr @T_FileStream_readLine(ptr noundef %1, ptr noundef nonnull %9, i32 noundef 500)
  %.not19 = icmp eq ptr %21, null
  br i1 %.not19, label %.thread, label %15

22:                                               ; preds = %.critedge
  %bcmp = call i32 @bcmp(ptr noundef nonnull dereferenceable(12) %9, ptr noundef nonnull dereferenceable(12) @.str.23, i64 12)
  %23 = icmp eq i32 %bcmp, 0
  br i1 %23, label %35, label %24

24:                                               ; preds = %22
  call void @llvm.lifetime.start.p0(i64 12, ptr nonnull %6) #16
  call void @llvm.memset.p0.i64(ptr noundef nonnull align 4 dereferenceable(12) %6, i8 0, i64 12, i1 false)
  call void @llvm.lifetime.start.p0(i64 76, ptr nonnull %7) #16
  call void @llvm.lifetime.start.p0(i64 31, ptr nonnull %8) #16
  %25 = icmp eq i8 %20, 35
  br i1 %25, label %ucm_addMappingFromLine.exit, label %26

26:                                               ; preds = %24
  %27 = call ptr @u_skipWhitespace(ptr noundef nonnull %9)
  %28 = load i8, ptr %27, align 1, !tbaa !17
  switch i8 %28, label %29 [
    i8 0, label %ucm_addMappingFromLine.exit
    i8 10, label %ucm_addMappingFromLine.exit
    i8 13, label %ucm_addMappingFromLine.exit
  ]

29:                                               ; preds = %26
  %30 = call signext i8 @ucm_parseMappingLine(ptr noundef nonnull %6, ptr noundef nonnull %7, ptr noundef nonnull %8, ptr noundef nonnull %9)
  %.not.i = icmp eq i8 %30, 0
  br i1 %.not.i, label %ucm_addMappingFromLine.exit, label %31

31:                                               ; preds = %29
  %32 = call signext i8 @ucm_addMappingAuto(ptr noundef readonly %0, i8 noundef signext %2, ptr noundef %3, ptr noundef nonnull %6, ptr noundef nonnull %7, ptr noundef nonnull %8)
  br label %ucm_addMappingFromLine.exit

ucm_addMappingFromLine.exit:                      ; preds = %24, %26, %26, %26, %29, %31
  %.0.i = phi i8 [ 1, %26 ], [ 1, %26 ], [ 1, %26 ], [ 1, %24 ], [ 0, %29 ], [ %32, %31 ]
  call void @llvm.lifetime.end.p0(i64 31, ptr nonnull %8) #16
  call void @llvm.lifetime.end.p0(i64 76, ptr nonnull %7) #16
  call void @llvm.lifetime.end.p0(i64 12, ptr nonnull %6) #16
  %33 = and i8 %.0.i, %.0.ph30
  %34 = call ptr @T_FileStream_readLine(ptr noundef %1, ptr noundef nonnull %9, i32 noundef 500)
  %.not1927 = icmp eq ptr %34, null
  br i1 %.not1927, label %.thread, label %.lr.ph28, !llvm.loop !73

35:                                               ; preds = %22
  %.not20 = icmp eq i8 %.0.ph30, 0
  br i1 %.not20, label %36, label %37

36:                                               ; preds = %.thread, %35
  store i32 13, ptr %4, align 4, !tbaa !29
  br label %37

37:                                               ; preds = %35, %36, %5
  call void @llvm.lifetime.end.p0(i64 500, ptr nonnull %9) #16
  ret void
}